target datalayout = "e-m:e-p270:32:32-p271:32:32-p272:64:64-i64:64-i128:128-f80:128-n8:16:32:64-S128"
target triple = "x86_64-pc-linux-gnu"

@.str.187 = private unnamed_addr constant [13 x i8] c"executing %s\00", align 1
@.str.188 = private unnamed_addr constant [17 x i8] c"query failed: %s\00", align 1
@.str.189 = private unnamed_addr constant [14 x i8] c"Query was: %s\00", align 1

; Function Attrs: nounwind uwtable
define internal void @executeCommand(ptr noundef %0, ptr noundef %1) #0 {
  %3 = alloca ptr, align 8
  %4 = alloca ptr, align 8
  %5 = alloca ptr, align 8
  store ptr %0, ptr %3, align 8
  store ptr %1, ptr %4, align 8
  call void @llvm.lifetime.start.p0(i64 8, ptr %5) #11
  %6 = load ptr, ptr %4, align 8
  call void (i32, i32, ptr, ...) @pg_log_generic(i32 noundef 2, i32 noundef 0, ptr noundef @.str.187, ptr noundef %6)
  %7 = load ptr, ptr %3, align 8
  %8 = load ptr, ptr %4, align 8
  %9 = call ptr @PQexec(ptr noundef %7, ptr noundef %8)
  store ptr %9, ptr %5, align 8
  %10 = load ptr, ptr %5, align 8
  %11 = icmp ne ptr %10, null
  br i1 %11, label %12, label %16

12:                                               ; preds = %2
  %13 = load ptr, ptr %5, align 8
  %14 = call i32 @PQresultStatus(ptr noundef %13)
  %15 = icmp ne i32 %14, 1
  br i1 %15, label %16, label %21

16:                                               ; preds = %12, %2
  %17 = load ptr, ptr %3, align 8
  %18 = call ptr @PQerrorMessage(ptr noundef %17)
  call void (i32, i32, ptr, ...) @pg_log_generic(i32 noundef 4, i32 noundef 0, ptr noundef @.str.188, ptr noundef %18)
  %19 = load ptr, ptr %4, align 8
  call void (i32, i32, ptr, ...) @pg_log_generic(i32 noundef 4, i32 noundef 1, ptr noundef @.str.189, ptr noundef %19)
  %20 = load ptr, ptr %3, align 8
  call void @PQfinish(ptr noundef %20)
  call void @exit(i32 noundef 1) #13
  unreachable

21:                                               ; preds = %12
  %22 = load ptr, ptr %5, align 8
  call void @PQclear(ptr noundef %22)
  call void @llvm.lifetime.end.p0(i64 8, ptr %5) #11
  ret void
}